target datalayout = "e-m:e-p270:32:32-p271:32:32-p272:64:64-i64:64-i128:128-f80:128-n8:16:32:64-S128"
target triple = "x86_64-pc-linux-gnu"

%struct.ossl_algorithm_st = type { ptr, ptr, ptr, ptr }
%struct.decoder_data_st = type { ptr, i32, ptr, ptr, ptr, i8 }

; Function Attrs: nounwind uwtable
define internal ptr @construct_decoder(ptr noundef %0, ptr noundef %1, ptr noundef %2) #0 {
  %4 = alloca ptr, align 8
  %5 = alloca ptr, align 8
  %6 = alloca ptr, align 8
  %7 = alloca ptr, align 8
  %8 = alloca ptr, align 8
  %9 = alloca ptr, align 8
  %10 = alloca ptr, align 8
  %11 = alloca i32, align 4
  %12 = alloca ptr, align 8
  store ptr %0, ptr %4, align 8, !tbaa !23
  store ptr %1, ptr %5, align 8, !tbaa !24
  store ptr %2, ptr %6, align 8, !tbaa !10
  call void @llvm.lifetime.start.p0(i64 8, ptr %7) #7
  %13 = load ptr, ptr %6, align 8, !tbaa !10
  store ptr %13, ptr %7, align 8, !tbaa !53
  call void @llvm.lifetime.start.p0(i64 8, ptr %8) #7
  %14 = load ptr, ptr %5, align 8, !tbaa !24
  %15 = call ptr @ossl_provider_libctx(ptr noundef %14)
  store ptr %15, ptr %8, align 8, !tbaa !29
  call void @llvm.lifetime.start.p0(i64 8, ptr %9) #7
  %16 = load ptr, ptr %8, align 8, !tbaa !29
  %17 = call ptr @ossl_namemap_stored(ptr noundef %16)
  store ptr %17, ptr %9, align 8, !tbaa !56
  call void @llvm.lifetime.start.p0(i64 8, ptr %10) #7
  %18 = load ptr, ptr %4, align 8, !tbaa !23
  %19 = getelementptr inbounds nuw %struct.ossl_algorithm_st, ptr %18, i32 0, i32 0
  %20 = load ptr, ptr %19, align 8, !tbaa !86
  store ptr %20, ptr %10, align 8, !tbaa !48
  call void @llvm.lifetime.start.p0(i64 4, ptr %11) #7
  %21 = load ptr, ptr %9, align 8, !tbaa !56
  %22 = load ptr, ptr %10, align 8, !tbaa !48
  %23 = call i32 @ossl_namemap_add_names(ptr noundef %21, i32 noundef 0, ptr noundef %22, i8 noundef signext 58)
  store i32 %23, ptr %11, align 4, !tbaa !8
  call void @llvm.lifetime.start.p0(i64 8, ptr %12) #7
  store ptr null, ptr %12, align 8, !tbaa !10
  %24 = load i32, ptr %11, align 4, !tbaa !8
  %25 = icmp ne i32 %24, 0
  br i1 %25, label %26, label %31

26:                                               ; preds = %3
  %27 = load i32, ptr %11, align 4, !tbaa !8
  %28 = load ptr, ptr %4, align 8, !tbaa !23
  %29 = load ptr, ptr %5, align 8, !tbaa !24
  %30 = call ptr @ossl_decoder_from_algorithm(i32 noundef %27, ptr noundef %28, ptr noundef %29)
  store ptr %30, ptr %12, align 8, !tbaa !10
  br label %31

31:                                               ; preds = %26, %3
  %32 = load ptr, ptr %12, align 8, !tbaa !10
  %33 = icmp eq ptr %32, null
  br i1 %33, label %34, label %40

34:                                               ; preds = %31
  %35 = load ptr, ptr %7, align 8, !tbaa !53
  %36 = getelementptr inbounds nuw %struct.decoder_data_st, ptr %35, i32 0, i32 5
  %37 = load i8, ptr %36, align 8
  %38 = and i8 %37, -2
  %39 = or i8 %38, 1
  store i8 %39, ptr %36, align 8
  br label %40

40:                                               ; preds = %34, %31
  %41 = load ptr, ptr %12, align 8, !tbaa !10
  call void @llvm.lifetime.end.p0(i64 8, ptr %12) #7
  call void @llvm.lifetime.end.p0(i64 4, ptr %11) #7
  call void @llvm.lifetime.end.p0(i64 8, ptr %10) #7
  call void @llvm.lifetime.end.p0(i64 8, ptr %9) #7
  call void @llvm.lifetime.end.p0(i64 8, ptr %8) #7
  call void @llvm.lifetime.end.p0(i64 8, ptr %7) #7
  ret ptr %41
}