; Function Attrs: nounwind uwtable
define internal ptr @construct_decoder(ptr noundef %0, ptr noundef %1, ptr noundef captures(none) %2) #2 {
  %4 = tail call ptr @ossl_provider_libctx(ptr noundef %1) #8
  %5 = tail call ptr @ossl_namemap_stored(ptr noundef %4) #8
  %6 = load ptr, ptr %0, align 8, !tbaa !63
  %7 = tail call i32 @ossl_namemap_add_names(ptr noundef %5, i32 noundef 0, ptr noundef %6, i8 noundef signext 58) #8
  %.not = icmp eq i32 %7, 0
  br i1 %.not, label %.thread, label %8

8:                                                ; preds = %3
  %9 = tail call ptr @ossl_decoder_from_algorithm(i32 noundef %7, ptr noundef nonnull %0, ptr noundef %1)
  %10 = icmp eq ptr %9, null
  br i1 %10, label %.thread, label %14

.thread:                                          ; preds = %3, %8
  %11 = getelementptr inbounds nuw i8, ptr %2, i64 40
  %12 = load i8, ptr %11, align 8
  %13 = or i8 %12, 1
  store i8 %13, ptr %11, align 8
  br label %14

14:                                               ; preds = %.thread, %8
  %.014 = phi ptr [ null, %.thread ], [ %9, %8 ]
  ret ptr %.014
}